target datalayout = "e-m:e-p270:32:32-p271:32:32-p272:64:64-i64:64-i128:128-f80:128-n8:16:32:64-S128"
target triple = "x86_64-pc-linux-gnu"

%struct.re_pattern_buffer = type { ptr, i32, i32, i32, i32, i32, i32, i32, i32, i32, i32, i32, i32, i32, ptr, ptr, ptr, ptr, i32, i32, i32, i32, i64, i64, i32, ptr, ptr, [256 x i8], ptr, ptr, i64, i64, i64, ptr }
%struct.ScanEnv = type { i32, i32, ptr, ptr, i32, i32, i32, i32, ptr, ptr, ptr, ptr, ptr, ptr, i32, i32, i32, i32, [8 x ptr], ptr, i32, i32, ptr, i32 }
%struct.GroupNumRemap = type { i32 }

; Function Attrs: nounwind sspstrong uwtable
define internal i32 @disable_noname_group_capture(ptr noundef %0, ptr noundef %1, ptr noundef %2) #0 {
  %4 = alloca i32, align 4
  %5 = alloca ptr, align 8
  %6 = alloca ptr, align 8
  %7 = alloca ptr, align 8
  %8 = alloca i32, align 4
  %9 = alloca i32, align 4
  %10 = alloca i32, align 4
  %11 = alloca i32, align 4
  %12 = alloca i32, align 4
  %13 = alloca ptr, align 8
  %14 = alloca i32, align 4
  store ptr %0, ptr %5, align 8, !tbaa !84
  store ptr %1, ptr %6, align 8, !tbaa !21
  store ptr %2, ptr %7, align 8, !tbaa !36
  call void @llvm.lifetime.start.p0(i64 4, ptr %8) #11
  call void @llvm.lifetime.start.p0(i64 4, ptr %9) #11
  call void @llvm.lifetime.start.p0(i64 4, ptr %10) #11
  call void @llvm.lifetime.start.p0(i64 4, ptr %11) #11
  call void @llvm.lifetime.start.p0(i64 4, ptr %12) #11
  call void @llvm.lifetime.start.p0(i64 8, ptr %13) #11
  %15 = load ptr, ptr %7, align 8, !tbaa !36
  %16 = getelementptr inbounds nuw %struct.ScanEnv, ptr %15, i32 0, i32 15
  %17 = load i32, ptr %16, align 4, !tbaa !65
  %18 = add i32 %17, 1
  %19 = sext i32 %18 to i64
  %20 = mul i64 4, %19
  %21 = alloca i8, i64 %20, align 16
  store ptr %21, ptr %13, align 8, !tbaa !36
  %22 = load ptr, ptr %13, align 8, !tbaa !36
  %23 = icmp eq ptr %22, null
  br i1 %23, label %24, label %25

24:                                               ; preds = %3
  store i32 -5, ptr %4, align 4
  store i32 1, ptr %14, align 4
  br label %182

25:                                               ; preds = %3
  store i32 1, ptr %9, align 4, !tbaa !7
  br label %26

26:                                               ; preds = %38, %25
  %27 = load i32, ptr %9, align 4, !tbaa !7
  %28 = load ptr, ptr %7, align 8, !tbaa !36
  %29 = getelementptr inbounds nuw %struct.ScanEnv, ptr %28, i32 0, i32 15
  %30 = load i32, ptr %29, align 4, !tbaa !65
  %31 = icmp sle i32 %27, %30
  br i1 %31, label %32, label %41

32:                                               ; preds = %26
  %33 = load ptr, ptr %13, align 8, !tbaa !36
  %34 = load i32, ptr %9, align 4, !tbaa !7
  %35 = sext i32 %34 to i64
  %36 = getelementptr %struct.GroupNumRemap, ptr %33, i64 %35
  %37 = getelementptr inbounds nuw %struct.GroupNumRemap, ptr %36, i32 0, i32 0
  store i32 0, ptr %37, align 4, !tbaa !85
  br label %38

38:                                               ; preds = %32
  %39 = load i32, ptr %9, align 4, !tbaa !7
  %40 = add i32 %39, 1
  store i32 %40, ptr %9, align 4, !tbaa !7
  br label %26, !llvm.loop !87

41:                                               ; preds = %26
  store i32 0, ptr %11, align 4, !tbaa !7
  %42 = load ptr, ptr %5, align 8, !tbaa !84
  %43 = load ptr, ptr %13, align 8, !tbaa !36
  %44 = call i32 @noname_disable_map(ptr noundef %42, ptr noundef %43, ptr noundef %11)
  store i32 %44, ptr %8, align 4, !tbaa !7
  %45 = load i32, ptr %8, align 4, !tbaa !7
  %46 = icmp ne i32 %45, 0
  br i1 %46, label %47, label %49

47:                                               ; preds = %41
  %48 = load i32, ptr %8, align 4, !tbaa !7
  store i32 %48, ptr %4, align 4
  store i32 1, ptr %14, align 4
  br label %182

49:                                               ; preds = %41
  %50 = load ptr, ptr %5, align 8, !tbaa !84
  %51 = load ptr, ptr %50, align 8, !tbaa !66
  %52 = load ptr, ptr %13, align 8, !tbaa !36
  %53 = load ptr, ptr %7, align 8, !tbaa !36
  %54 = getelementptr inbounds nuw %struct.ScanEnv, ptr %53, i32 0, i32 15
  %55 = load i32, ptr %54, align 4, !tbaa !65
  %56 = call i32 @renumber_by_map(ptr noundef %51, ptr noundef %52, i32 noundef %55)
  store i32 %56, ptr %8, align 4, !tbaa !7
  %57 = load i32, ptr %8, align 4, !tbaa !7
  %58 = icmp ne i32 %57, 0
  br i1 %58, label %59, label %61

59:                                               ; preds = %49
  %60 = load i32, ptr %8, align 4, !tbaa !7
  store i32 %60, ptr %4, align 4
  store i32 1, ptr %14, align 4
  br label %182

61:                                               ; preds = %49
  store i32 1, ptr %9, align 4, !tbaa !7
  store i32 1, ptr %10, align 4, !tbaa !7
  br label %62

62:                                               ; preds = %115, %61
  %63 = load i32, ptr %9, align 4, !tbaa !7
  %64 = load ptr, ptr %7, align 8, !tbaa !36
  %65 = getelementptr inbounds nuw %struct.ScanEnv, ptr %64, i32 0, i32 15
  %66 = load i32, ptr %65, align 4, !tbaa !65
  %67 = icmp sle i32 %63, %66
  br i1 %67, label %68, label %118

68:                                               ; preds = %62
  %69 = load ptr, ptr %13, align 8, !tbaa !36
  %70 = load i32, ptr %9, align 4, !tbaa !7
  %71 = sext i32 %70 to i64
  %72 = getelementptr %struct.GroupNumRemap, ptr %69, i64 %71
  %73 = getelementptr inbounds nuw %struct.GroupNumRemap, ptr %72, i32 0, i32 0
  %74 = load i32, ptr %73, align 4, !tbaa !85
  %75 = icmp sgt i32 %74, 0
  br i1 %75, label %76, label %114

76:                                               ; preds = %68
  %77 = load ptr, ptr %7, align 8, !tbaa !36
  %78 = getelementptr inbounds nuw %struct.ScanEnv, ptr %77, i32 0, i32 19
  %79 = load ptr, ptr %78, align 8, !tbaa !77
  %80 = icmp ne ptr %79, null
  br i1 %80, label %81, label %85

81:                                               ; preds = %76
  %82 = load ptr, ptr %7, align 8, !tbaa !36
  %83 = getelementptr inbounds nuw %struct.ScanEnv, ptr %82, i32 0, i32 19
  %84 = load ptr, ptr %83, align 8, !tbaa !77
  br label %89

85:                                               ; preds = %76
  %86 = load ptr, ptr %7, align 8, !tbaa !36
  %87 = getelementptr inbounds nuw %struct.ScanEnv, ptr %86, i32 0, i32 18
  %88 = getelementptr inbounds [8 x ptr], ptr %87, i64 0, i64 0
  br label %89

89:                                               ; preds = %85, %81
  %90 = phi ptr [ %84, %81 ], [ %88, %85 ]
  %91 = load i32, ptr %9, align 4, !tbaa !7
  %92 = sext i32 %91 to i64
  %93 = getelementptr ptr, ptr %90, i64 %92
  %94 = load ptr, ptr %93, align 8, !tbaa !66
  %95 = load ptr, ptr %7, align 8, !tbaa !36
  %96 = getelementptr inbounds nuw %struct.ScanEnv, ptr %95, i32 0, i32 19
  %97 = load ptr, ptr %96, align 8, !tbaa !77
  %98 = icmp ne ptr %97, null
  br i1 %98, label %99, label %103

99:                                               ; preds = %89
  %100 = load ptr, ptr %7, align 8, !tbaa !36
  %101 = getelementptr inbounds nuw %struct.ScanEnv, ptr %100, i32 0, i32 19
  %102 = load ptr, ptr %101, align 8, !tbaa !77
  br label %107

103:                                              ; preds = %89
  %104 = load ptr, ptr %7, align 8, !tbaa !36
  %105 = getelementptr inbounds nuw %struct.ScanEnv, ptr %104, i32 0, i32 18
  %106 = getelementptr inbounds [8 x ptr], ptr %105, i64 0, i64 0
  br label %107

107:                                              ; preds = %103, %99
  %108 = phi ptr [ %102, %99 ], [ %106, %103 ]
  %109 = load i32, ptr %10, align 4, !tbaa !7
  %110 = sext i32 %109 to i64
  %111 = getelementptr ptr, ptr %108, i64 %110
  store ptr %94, ptr %111, align 8, !tbaa !66
  %112 = load i32, ptr %10, align 4, !tbaa !7
  %113 = add i32 %112, 1
  store i32 %113, ptr %10, align 4, !tbaa !7
  br label %114

114:                                              ; preds = %107, %68
  br label %115

115:                                              ; preds = %114
  %116 = load i32, ptr %9, align 4, !tbaa !7
  %117 = add i32 %116, 1
  store i32 %117, ptr %9, align 4, !tbaa !7
  br label %62, !llvm.loop !89

118:                                              ; preds = %62
  %119 = load ptr, ptr %7, align 8, !tbaa !36
  %120 = getelementptr inbounds nuw %struct.ScanEnv, ptr %119, i32 0, i32 4
  %121 = load i32, ptr %120, align 8, !tbaa !71
  store i32 %121, ptr %12, align 4, !tbaa !7
  %122 = load ptr, ptr %7, align 8, !tbaa !36
  %123 = getelementptr inbounds nuw %struct.ScanEnv, ptr %122, i32 0, i32 4
  store i32 0, ptr %123, align 8, !tbaa !71
  store i32 1, ptr %9, align 4, !tbaa !7
  br label %124

124:                                              ; preds = %165, %118
  %125 = load i32, ptr %9, align 4, !tbaa !7
  %126 = icmp sle i32 %125, 31
  br i1 %126, label %127, label %168

127:                                              ; preds = %124
  %128 = load i32, ptr %9, align 4, !tbaa !7
  %129 = icmp slt i32 %128, 32
  br i1 %129, label %130, label %136

130:                                              ; preds = %127
  %131 = load i32, ptr %12, align 4, !tbaa !7
  %132 = load i32, ptr %9, align 4, !tbaa !7
  %133 = shl i32 1, %132
  %134 = and i32 %131, %133
  %135 = icmp ne i32 %134, 0
  br i1 %135, label %140, label %164

136:                                              ; preds = %127
  %137 = load i32, ptr %12, align 4, !tbaa !7
  %138 = and i32 %137, 1
  %139 = icmp ne i32 %138, 0
  br i1 %139, label %140, label %164

140:                                              ; preds = %136, %130
  br label %141

141:                                              ; preds = %140
  %142 = load ptr, ptr %13, align 8, !tbaa !36
  %143 = load i32, ptr %9, align 4, !tbaa !7
  %144 = sext i32 %143 to i64
  %145 = getelementptr %struct.GroupNumRemap, ptr %142, i64 %144
  %146 = getelementptr inbounds nuw %struct.GroupNumRemap, ptr %145, i32 0, i32 0
  %147 = load i32, ptr %146, align 4, !tbaa !85
  %148 = icmp slt i32 %147, 32
  br i1 %148, label %149, label %161

149:                                              ; preds = %141
  %150 = load ptr, ptr %13, align 8, !tbaa !36
  %151 = load i32, ptr %9, align 4, !tbaa !7
  %152 = sext i32 %151 to i64
  %153 = getelementptr %struct.GroupNumRemap, ptr %150, i64 %152
  %154 = getelementptr inbounds nuw %struct.GroupNumRemap, ptr %153, i32 0, i32 0
  %155 = load i32, ptr %154, align 4, !tbaa !85
  %156 = shl i32 1, %155
  %157 = load ptr, ptr %7, align 8, !tbaa !36
  %158 = getelementptr inbounds nuw %struct.ScanEnv, ptr %157, i32 0, i32 4
  %159 = load i32, ptr %158, align 8, !tbaa !71
  %160 = or i32 %159, %156
  store i32 %160, ptr %158, align 8, !tbaa !71
  br label %161

161:                                              ; preds = %149, %141
  br label %162

162:                                              ; preds = %161
  br label %163

163:                                              ; preds = %162
  br label %164

164:                                              ; preds = %163, %136, %130
  br label %165

165:                                              ; preds = %164
  %166 = load i32, ptr %9, align 4, !tbaa !7
  %167 = add i32 %166, 1
  store i32 %167, ptr %9, align 4, !tbaa !7
  br label %124, !llvm.loop !90

168:                                              ; preds = %124
  %169 = load ptr, ptr %7, align 8, !tbaa !36
  %170 = getelementptr inbounds nuw %struct.ScanEnv, ptr %169, i32 0, i32 16
  %171 = load i32, ptr %170, align 8, !tbaa !59
  %172 = load ptr, ptr %7, align 8, !tbaa !36
  %173 = getelementptr inbounds nuw %struct.ScanEnv, ptr %172, i32 0, i32 15
  store i32 %171, ptr %173, align 4, !tbaa !65
  %174 = load ptr, ptr %7, align 8, !tbaa !36
  %175 = getelementptr inbounds nuw %struct.ScanEnv, ptr %174, i32 0, i32 16
  %176 = load i32, ptr %175, align 8, !tbaa !59
  %177 = load ptr, ptr %6, align 8, !tbaa !21
  %178 = getelementptr inbounds nuw %struct.re_pattern_buffer, ptr %177, i32 0, i32 3
  store i32 %176, ptr %178, align 8, !tbaa !56
  %179 = load ptr, ptr %6, align 8, !tbaa !21
  %180 = load ptr, ptr %13, align 8, !tbaa !36
  %181 = call i32 @onig_renumber_name_table(ptr noundef %179, ptr noundef %180)
  store i32 %181, ptr %4, align 4
  store i32 1, ptr %14, align 4
  br label %182

182:                                              ; preds = %168, %59, %47, %24
  call void @llvm.lifetime.end.p0(i64 8, ptr %13) #11
  call void @llvm.lifetime.end.p0(i64 4, ptr %12) #11
  call void @llvm.lifetime.end.p0(i64 4, ptr %11) #11
  call void @llvm.lifetime.end.p0(i64 4, ptr %10) #11
  call void @llvm.lifetime.end.p0(i64 4, ptr %9) #11
  call void @llvm.lifetime.end.p0(i64 4, ptr %8) #11
  %183 = load i32, ptr %4, align 4
  ret i32 %183
}