; Function Attrs: nounwind sspstrong uwtable
define internal fastcc i32 @disable_noname_group_capture(ptr noundef nonnull captures(none) %0, ptr noundef %1, ptr noundef nonnull captures(none) %2) unnamed_addr #4 {
  %4 = alloca i32, align 4
  call void @llvm.lifetime.start.p0(i64 4, ptr nonnull %4) #20
  %5 = getelementptr inbounds nuw i8, ptr %2, i64 92
  %6 = load i32, ptr %5, align 4, !tbaa !58
  %7 = add i32 %6, 1
  %8 = sext i32 %7 to i64
  %9 = shl nsw i64 %8, 2
  %10 = alloca i8, i64 %9, align 16
  %.not62 = icmp slt i32 %6, 1
  br i1 %.not62, label %._crit_edge, label %.lr.ph.preheader

.lr.ph.preheader:                                 ; preds = %3
  %scevgep = getelementptr nuw i8, ptr %10, i64 4
  %smax = tail call i32 @llvm.smax.i32(i32 %7, i32 2)
  %11 = add nsw i32 %smax, -1
  %12 = zext nneg i32 %11 to i64
  %13 = shl nuw nsw i64 %12, 2
  call void @llvm.memset.p0.i64(ptr nonnull align 4 %scevgep, i8 0, i64 %13, i1 false), !tbaa !123
  br label %._crit_edge

._crit_edge:                                      ; preds = %.lr.ph.preheader, %3
  store i32 0, ptr %4, align 4, !tbaa !7
  call fastcc void @noname_disable_map(ptr noundef nonnull %0, ptr noundef %10, ptr noundef %4)
  %14 = load ptr, ptr %0, align 8, !tbaa !59
  %15 = load i32, ptr %5, align 4, !tbaa !58
  %16 = call fastcc i32 @renumber_by_map(ptr noundef %14, ptr noundef %10, i32 noundef %15)
  %.not57 = icmp eq i32 %16, 0
  br i1 %.not57, label %.preheader, label %55

.preheader:                                       ; preds = %._crit_edge
  %17 = load i32, ptr %5, align 4, !tbaa !58
  %.not5864 = icmp slt i32 %17, 1
  br i1 %.not5864, label %._crit_edge68, label %.lr.ph67

.lr.ph67:                                         ; preds = %.preheader
  %18 = getelementptr inbounds nuw i8, ptr %2, i64 168
  %19 = getelementptr inbounds nuw i8, ptr %2, i64 104
  %20 = add nuw i32 %17, 1
  %smax72 = call i32 @llvm.smax.i32(i32 %20, i32 2)
  %wide.trip.count = zext nneg i32 %smax72 to i64
  br label %21

21:                                               ; preds = %.lr.ph67, %33
  %indvars.iv = phi i64 [ 1, %.lr.ph67 ], [ %indvars.iv.next, %33 ]
  %.04966 = phi i32 [ 1, %.lr.ph67 ], [ %.1, %33 ]
  %22 = getelementptr %struct.GroupNumRemap, ptr %10, i64 %indvars.iv
  %23 = load i32, ptr %22, align 4, !tbaa !123
  %24 = icmp sgt i32 %23, 0
  br i1 %24, label %25, label %33

25:                                               ; preds = %21
  %26 = load ptr, ptr %18, align 8, !tbaa !113
  %.not60 = icmp eq ptr %26, null
  %27 = select i1 %.not60, ptr %19, ptr %26
  %28 = getelementptr ptr, ptr %27, i64 %indvars.iv
  %29 = load ptr, ptr %28, align 8, !tbaa !59
  %30 = sext i32 %.04966 to i64
  %31 = getelementptr ptr, ptr %27, i64 %30
  store ptr %29, ptr %31, align 8, !tbaa !59
  %32 = add i32 %.04966, 1
  br label %33

33:                                               ; preds = %21, %25
  %.1 = phi i32 [ %32, %25 ], [ %.04966, %21 ]
  %indvars.iv.next = add nuw nsw i64 %indvars.iv, 1
  %exitcond = icmp eq i64 %indvars.iv.next, %wide.trip.count
  br i1 %exitcond, label %._crit_edge68, label %21, !llvm.loop !125

._crit_edge68:                                    ; preds = %33, %.preheader
  %34 = getelementptr inbounds nuw i8, ptr %2, i64 24
  %35 = load i32, ptr %34, align 8, !tbaa !68
  store i32 0, ptr %34, align 8, !tbaa !68
  br label %36

36:                                               ; preds = %._crit_edge68, %48
  %37 = phi i32 [ 0, %._crit_edge68 ], [ %49, %48 ]
  %indvars.iv73 = phi i64 [ 1, %._crit_edge68 ], [ %indvars.iv.next74, %48 ]
  %38 = trunc nuw nsw i64 %indvars.iv73 to i32
  %39 = shl nuw i32 1, %38
  %40 = and i32 %39, %35
  %.not59 = icmp eq i32 %40, 0
  br i1 %.not59, label %48, label %41

41:                                               ; preds = %36
  %42 = getelementptr %struct.GroupNumRemap, ptr %10, i64 %indvars.iv73
  %43 = load i32, ptr %42, align 4, !tbaa !123
  %44 = icmp slt i32 %43, 32
  br i1 %44, label %45, label %48

45:                                               ; preds = %41
  %46 = shl nuw i32 1, %43
  %47 = or i32 %37, %46
  store i32 %47, ptr %34, align 8, !tbaa !68
  br label %48

48:                                               ; preds = %36, %45, %41
  %49 = phi i32 [ %37, %36 ], [ %47, %45 ], [ %37, %41 ]
  %indvars.iv.next74 = add nuw nsw i64 %indvars.iv73, 1
  %exitcond76.not = icmp eq i64 %indvars.iv.next74, 32
  br i1 %exitcond76.not, label %50, label %36, !llvm.loop !126

50:                                               ; preds = %48
  %51 = getelementptr inbounds nuw i8, ptr %2, i64 96
  %52 = load i32, ptr %51, align 8, !tbaa !52
  store i32 %52, ptr %5, align 4, !tbaa !58
  %53 = getelementptr inbounds nuw i8, ptr %1, i64 16
  store i32 %52, ptr %53, align 8, !tbaa !49
  %54 = call i32 @onig_renumber_name_table(ptr noundef %1, ptr noundef nonnull %10) #20
  br label %55

55:                                               ; preds = %._crit_edge, %50
  %.0 = phi i32 [ %54, %50 ], [ %16, %._crit_edge ]
  call void @llvm.lifetime.end.p0(i64 4, ptr nonnull %4) #20
  ret i32 %.0
}